ARM GAS  C:\Users\Ben\AppData\Local\Temp\ccM2TbOL.s 			page 1


   1              		.cpu cortex-m4
   2              		.eabi_attribute 27, 1
   3              		.eabi_attribute 28, 1
   4              		.eabi_attribute 20, 1
   5              		.eabi_attribute 21, 1
   6              		.eabi_attribute 23, 3
   7              		.eabi_attribute 24, 1
   8              		.eabi_attribute 25, 1
   9              		.eabi_attribute 26, 1
  10              		.eabi_attribute 30, 2
  11              		.eabi_attribute 34, 1
  12              		.eabi_attribute 18, 4
  13              		.file	"pi_regulator.c"
  14              		.text
  15              	.Ltext0:
  16              		.cfi_sections	.debug_frame
  17              		.section	.text.PiRegulator,"ax",%progbits
  18              		.align	1
  19              		.p2align 4,,15
  20              		.syntax unified
  21              		.thumb
  22              		.thumb_func
  23              		.fpu fpv4-sp-d16
  24              		.type	PiRegulator, %function
  25              	PiRegulator:
  26              	.LFB257:
  27              		.file 1 "pi_regulator.c"
  28              		.loc 1 18 0
  29              		.cfi_startproc
  30              		@ args = 0, pretend = 0, frame = 8
  31              		@ frame_needed = 0, uses_anonymous_args = 0
  32              	.LVL0:
  33 0000 F0B5     		push	{r4, r5, r6, r7, lr}
  34              		.cfi_def_cfa_offset 20
  35              		.cfi_offset 4, -20
  36              		.cfi_offset 5, -16
  37              		.cfi_offset 6, -12
  38              		.cfi_offset 7, -8
  39              		.cfi_offset 14, -4
  40 0002 2DED048B 		vpush.64	{d8, d9}
  41              		.cfi_def_cfa_offset 36
  42              		.cfi_offset 80, -36
  43              		.cfi_offset 81, -32
  44              		.cfi_offset 82, -28
  45              		.cfi_offset 83, -24
  46              	.LBB48:
  47              	.LBB49:
  48              		.file 2 "../../lib/e-puck2_main-processor/ChibiOS//os/rt/include/chregistry.h"
  49              		.loc 2 135 0
  50 0006 264D     		ldr	r5, .L12
  51              	.LBE49:
  52              	.LBE48:
  53              		.loc 1 18 0
  54 0008 264B     		ldr	r3, .L12+4
  55              		.loc 1 27 0
  56 000a 9FED278A 		vldr.32	s16, .L12+8
  57              	.LBB52:
ARM GAS  C:\Users\Ben\AppData\Local\Temp\ccM2TbOL.s 			page 2


  58              	.LBB50:
  59              		.loc 2 135 0
  60 000e AA69     		ldr	r2, [r5, #24]
  61 0010 2649     		ldr	r1, .L12+12
  62              	.LBE50:
  63              	.LBE52:
  64              		.loc 1 18 0
  65 0012 1B68     		ldr	r3, [r3]
  66              	.LBB53:
  67              	.LBB54:
  68              	.LBB55:
  69              	.LBB56:
  70              		.file 3 "../../lib/e-puck2_main-processor/ChibiOS//os/rt/include/chsys.h"
  71              		.loc 3 367 0
  72 0014 264F     		ldr	r7, .L12+16
  73              	.LBE56:
  74              	.LBE55:
  75              	.LBE54:
  76              	.LBE53:
  77              		.loc 1 38 0
  78 0016 9FED279A 		vldr.32	s18, .L12+20
  79              	.LBB73:
  80              	.LBB51:
  81              		.loc 2 135 0
  82 001a 9161     		str	r1, [r2, #24]
  83              	.LBE51:
  84              	.LBE73:
  85              		.loc 1 18 0
  86 001c 83B0     		sub	sp, sp, #12
  87              		.cfi_def_cfa_offset 48
  88              		.loc 1 33 0
  89 001e F0EE488A 		vmov.f32	s17, s16
  90              		.loc 1 18 0
  91 0022 0193     		str	r3, [sp, #4]
  92              	.LVL1:
  93              	.L5:
  94              	.LBB74:
  95              	.LBB72:
  96              	.LBB64:
  97              	.LBB65:
  98              	.LBB66:
  99              	.LBB67:
 100              	.LBB68:
 101              		.file 4 "../../lib/e-puck2_main-processor/ChibiOS//os/ext/CMSIS/include/core_cmFunc.h"
 102              		.loc 4 546 0
 103 0024 2023     		movs	r3, #32
 104              		.syntax unified
 105              	@ 546 "../../lib/e-puck2_main-processor/ChibiOS//os/ext/CMSIS/include/core_cmFunc.h" 1
 106 0026 83F31188 		MSR basepri, r3
 107              	@ 0 "" 2
 108              	.LVL2:
 109              		.thumb
 110              		.syntax unified
 111              	.LBE68:
 112              	.LBE67:
 113              	.LBE66:
 114              		.loc 3 349 0
ARM GAS  C:\Users\Ben\AppData\Local\Temp\ccM2TbOL.s 			page 3


 115 002a FFF7FEFF 		bl	_stats_start_measure_crit_thd
 116              	.LVL3:
 117              		.loc 3 350 0
 118 002e FFF7FEFF 		bl	_dbg_check_lock
 119              	.LVL4:
 120              	.LBE65:
 121              	.LBE64:
 122              	.LBB69:
 123              	.LBB70:
 124              		.file 5 "../../lib/e-puck2_main-processor/ChibiOS//os/rt/include/chvt.h"
 125              		.loc 5 231 0
 126 0032 AE6A     		ldr	r6, [r5, #40]
 127              	.LBE70:
 128              	.LBE69:
 129              	.LBB71:
 130              	.LBB63:
 131              		.loc 3 360 0
 132 0034 FFF7FEFF 		bl	_dbg_check_unlock
 133              	.LVL5:
 134              		.loc 3 361 0
 135 0038 FFF7FEFF 		bl	_stats_stop_measure_crit_thd
 136              	.LVL6:
 137              		.loc 3 367 0
 138 003c 2B68     		ldr	r3, [r5]
 139 003e AB42     		cmp	r3, r5
 140              	.LBB57:
 141              	.LBB58:
 142              	.LBB59:
 143              		.loc 4 546 0
 144 0040 4FF00004 		mov	r4, #0
 145              	.LBE59:
 146              	.LBE58:
 147              	.LBE57:
 148              		.loc 3 367 0
 149 0044 07D0     		beq	.L2
 150 0046 AA69     		ldr	r2, [r5, #24]
 151 0048 9B68     		ldr	r3, [r3, #8]
 152 004a 9268     		ldr	r2, [r2, #8]
 153 004c 9A42     		cmp	r2, r3
 154 004e 02D2     		bcs	.L2
 155 0050 3846     		mov	r0, r7
 156 0052 FFF7FEFF 		bl	chSysHalt
 157              	.LVL7:
 158              	.L2:
 159              	.LBB62:
 160              	.LBB61:
 161              	.LBB60:
 162              		.loc 4 546 0
 163              		.syntax unified
 164              	@ 546 "../../lib/e-puck2_main-processor/ChibiOS//os/ext/CMSIS/include/core_cmFunc.h" 1
 165 0056 84F31188 		MSR basepri, r4
 166              	@ 0 "" 2
 167              	.LVL8:
 168              		.thumb
 169              		.syntax unified
 170              	.LBE60:
 171              	.LBE61:
ARM GAS  C:\Users\Ben\AppData\Local\Temp\ccM2TbOL.s 			page 4


 172              	.LBE62:
 173              	.LBE63:
 174              	.LBE71:
 175              	.LBE72:
 176              	.LBE74:
 177              		.loc 1 32 0
 178 005a FFF7FEFF 		bl	get_distance_cm
 179              	.LVL9:
 180              		.loc 1 33 0
 181 005e B5EEC00A 		vcmpe.f32	s0, #0
 182 0062 F1EE10FA 		vmrs	APSR_nzcv, FPSCR
 183              		.loc 1 34 0
 184 0066 F2EE047A 		vmov.f32	s15, #1.0e+1
 185              		.loc 1 33 0
 186 006a 0CDD     		ble	.L3
 187              		.loc 1 34 0
 188 006c 30EE670A 		vsub.f32	s0, s0, s15
 189              	.LVL10:
 190              		.loc 1 36 0
 191 0070 38EE008A 		vadd.f32	s16, s16, s0
 192              	.LVL11:
 193              		.loc 1 38 0
 194 0074 68EE287A 		vmul.f32	s15, s16, s17
 195 0078 E0EE097A 		vfma.f32	s15, s0, s18
 196 007c FDEEE77A 		vcvt.s32.f32	s15, s15
 197 0080 17EE903A 		vmov	r3, s15	@ int
 198 0084 1CB2     		sxth	r4, r3
 199              	.LVL12:
 200              	.L3:
 201              		.loc 1 44 0
 202 0086 2046     		mov	r0, r4
 203 0088 FFF7FEFF 		bl	right_motor_set_speed
 204              	.LVL13:
 205              		.loc 1 45 0
 206 008c 2046     		mov	r0, r4
 207 008e FFF7FEFF 		bl	left_motor_set_speed
 208              	.LVL14:
 209              		.loc 1 47 0
 210 0092 06F10A01 		add	r1, r6, #10
 211 0096 3046     		mov	r0, r6
 212 0098 FFF7FEFF 		bl	chThdSleepUntilWindowed
 213              	.LVL15:
 214              		.loc 1 30 0
 215 009c C2E7     		b	.L5
 216              	.L13:
 217 009e 00BF     		.align	2
 218              	.L12:
 219 00a0 00000000 		.word	ch
 220 00a4 00000000 		.word	__stack_chk_guard
 221 00a8 00000000 		.word	0
 222 00ac 00000000 		.word	.LANCHOR0
 223 00b0 00000000 		.word	.LANCHOR1
 224 00b4 0000C842 		.word	1120403456
 225              		.cfi_endproc
 226              	.LFE257:
 227              		.size	PiRegulator, .-PiRegulator
 228              		.section	.text.pi_regulator_start,"ax",%progbits
ARM GAS  C:\Users\Ben\AppData\Local\Temp\ccM2TbOL.s 			page 5


 229              		.align	1
 230              		.p2align 4,,15
 231              		.global	pi_regulator_start
 232              		.syntax unified
 233              		.thumb
 234              		.thumb_func
 235              		.fpu fpv4-sp-d16
 236              		.type	pi_regulator_start, %function
 237              	pi_regulator_start:
 238              	.LFB258:
 239              		.loc 1 51 0
 240              		.cfi_startproc
 241              		@ args = 0, pretend = 0, frame = 8
 242              		@ frame_needed = 0, uses_anonymous_args = 0
 243 0000 10B5     		push	{r4, lr}
 244              		.cfi_def_cfa_offset 8
 245              		.cfi_offset 4, -8
 246              		.cfi_offset 14, -4
 247 0002 0A4C     		ldr	r4, .L18
 248              		.loc 1 52 0
 249 0004 0A4B     		ldr	r3, .L18+4
 250              		.loc 1 51 0
 251 0006 2268     		ldr	r2, [r4]
 252              		.loc 1 52 0
 253 0008 0A48     		ldr	r0, .L18+8
 254              		.loc 1 51 0
 255 000a 84B0     		sub	sp, sp, #16
 256              		.cfi_def_cfa_offset 24
 257              		.loc 1 52 0
 258 000c 4FF41E71 		mov	r1, #632
 259              		.loc 1 51 0
 260 0010 0392     		str	r2, [sp, #12]
 261              		.loc 1 52 0
 262 0012 0022     		movs	r2, #0
 263 0014 0092     		str	r2, [sp]
 264 0016 4022     		movs	r2, #64
 265 0018 FFF7FEFF 		bl	chThdCreateStatic
 266              	.LVL16:
 267              		.loc 1 53 0
 268 001c 039A     		ldr	r2, [sp, #12]
 269 001e 2368     		ldr	r3, [r4]
 270 0020 9A42     		cmp	r2, r3
 271 0022 01D1     		bne	.L17
 272 0024 04B0     		add	sp, sp, #16
 273              		.cfi_remember_state
 274              		.cfi_def_cfa_offset 8
 275              		@ sp needed
 276 0026 10BD     		pop	{r4, pc}
 277              	.L17:
 278              		.cfi_restore_state
 279 0028 FFF7FEFF 		bl	__stack_chk_fail
 280              	.LVL17:
 281              	.L19:
 282              		.align	2
 283              	.L18:
 284 002c 00000000 		.word	__stack_chk_guard
 285 0030 00000000 		.word	PiRegulator
ARM GAS  C:\Users\Ben\AppData\Local\Temp\ccM2TbOL.s 			page 6


 286 0034 00000000 		.word	.LANCHOR2
 287              		.cfi_endproc
 288              	.LFE258:
 289              		.size	pi_regulator_start, .-pi_regulator_start
 290              		.section	.bss.waPiRegulator,"aw",%nobits
 291              		.align	3
 292              		.set	.LANCHOR2,. + 0
 293              		.type	waPiRegulator, %object
 294              		.size	waPiRegulator, 632
 295              	waPiRegulator:
 296 0000 00000000 		.space	632
 296      00000000 
 296      00000000 
 296      00000000 
 296      00000000 
 297              		.section	.rodata.__FUNCTION__.11853,"a",%progbits
 298              		.align	2
 299              		.set	.LANCHOR0,. + 0
 300              		.type	__FUNCTION__.11853, %object
 301              		.size	__FUNCTION__.11853, 12
 302              	__FUNCTION__.11853:
 303 0000 50695265 		.ascii	"PiRegulator\000"
 303      67756C61 
 303      746F7200 
 304              		.section	.rodata.__func__.7153,"a",%progbits
 305              		.align	2
 306              		.set	.LANCHOR1,. + 0
 307              		.type	__func__.7153, %object
 308              		.size	__func__.7153, 12
 309              	__func__.7153:
 310 0000 63685379 		.ascii	"chSysUnlock\000"
 310      73556E6C 
 310      6F636B00 
 311              		.text
 312              	.Letext0:
 313              		.file 6 "c:\\users\\ben\\documents\\eclipse_e-puck2_win32_29_jan_2020\\eclipse_e-puck2\\tools\\gcc
 314              		.file 7 "c:\\users\\ben\\documents\\eclipse_e-puck2_win32_29_jan_2020\\eclipse_e-puck2\\tools\\gcc
 315              		.file 8 "c:\\users\\ben\\documents\\eclipse_e-puck2_win32_29_jan_2020\\eclipse_e-puck2\\tools\\gcc
 316              		.file 9 "../../lib/e-puck2_main-processor/ChibiOS//os/rt/ports/ARMCMx/compilers/GCC/chtypes.h"
 317              		.file 10 "../../lib/e-puck2_main-processor/ChibiOS//os/rt/include/chsystypes.h"
 318              		.file 11 "../../lib/e-puck2_main-processor/ChibiOS//os/rt/include/chschd.h"
 319              		.file 12 "../../lib/e-puck2_main-processor/ChibiOS//os/ext/CMSIS/include/core_cm4.h"
 320              		.file 13 "../../lib/e-puck2_main-processor/ChibiOS//os/ext/CMSIS/ST/system_stm32f4xx.h"
 321              		.file 14 "../../lib/e-puck2_main-processor/ChibiOS//os/ext/CMSIS/ST/stm32f407xx.h"
 322              		.file 15 "../../lib/e-puck2_main-processor/ChibiOS//os/rt/ports/ARMCMx/chcore.h"
 323              		.file 16 "../../lib/e-puck2_main-processor/ChibiOS//os/rt/ports/ARMCMx/chcore_v7m.h"
 324              		.file 17 "../../lib/e-puck2_main-processor/ChibiOS//os/rt/include/chdebug.h"
 325              		.file 18 "../../lib/e-puck2_main-processor/ChibiOS//os/rt/include/chtm.h"
 326              		.file 19 "../../lib/e-puck2_main-processor/ChibiOS//os/rt/include/chstats.h"
 327              		.file 20 "../../lib/e-puck2_main-processor/ChibiOS//os/rt/include/chsem.h"
 328              		.file 21 "../../lib/e-puck2_main-processor/ChibiOS//os/rt/include/chmtx.h"
 329              		.file 22 "../../lib/e-puck2_main-processor/ChibiOS//os/rt/include/chevents.h"
 330              		.file 23 "../../lib/e-puck2_main-processor/ChibiOS//os/rt/include/chqueues.h"
 331              		.file 24 "../../lib/e-puck2_main-processor/ChibiOS//os/hal/ports/STM32/STM32F4xx/stm32_dma.h"
 332              		.file 25 "../../lib/e-puck2_main-processor/ChibiOS//os/hal/include/hal_ioblock.h"
 333              		.file 26 "../../lib/e-puck2_main-processor/ChibiOS//os/hal/ports/STM32/LLD/GPIOv2/pal_lld.h"
 334              		.file 27 "../../lib/e-puck2_main-processor/ChibiOS//os/hal/include/adc.h"
ARM GAS  C:\Users\Ben\AppData\Local\Temp\ccM2TbOL.s 			page 7


 335              		.file 28 "../../lib/e-puck2_main-processor/ChibiOS//os/hal/ports/STM32/STM32F4xx/adc_lld.h"
 336              		.file 29 "../../lib/e-puck2_main-processor/ChibiOS//os/hal/include/can.h"
 337              		.file 30 "../../lib/e-puck2_main-processor/ChibiOS//os/hal/ports/STM32/LLD/can_lld.h"
 338              		.file 31 "../../lib/e-puck2_main-processor/ChibiOS//os/hal/include/dac.h"
 339              		.file 32 "../../lib/e-puck2_main-processor/ChibiOS//os/hal/ports/STM32/LLD/DACv1/dac_lld.h"
 340              		.file 33 "../../lib/e-puck2_main-processor/ChibiOS//os/hal/include/ext.h"
 341              		.file 34 "../../lib/e-puck2_main-processor/ChibiOS//os/hal/ports/STM32/LLD/ext_lld.h"
 342              		.file 35 "../../lib/e-puck2_main-processor/ChibiOS//os/hal/include/gpt.h"
 343              		.file 36 "../../lib/e-puck2_main-processor/ChibiOS//os/hal/ports/STM32/LLD/TIMv1/gpt_lld.h"
 344              		.file 37 "../../lib/e-puck2_main-processor/ChibiOS//os/hal/ports/STM32/LLD/TIMv1/stm32_tim.h"
 345              		.file 38 "../../lib/e-puck2_main-processor/ChibiOS//os/hal/include/i2c.h"
 346              		.file 39 "../../lib/e-puck2_main-processor/ChibiOS//os/hal/ports/STM32/LLD/I2Cv1/i2c_lld.h"
 347              		.file 40 "../../lib/e-puck2_main-processor/ChibiOS//os/hal/include/i2s.h"
 348              		.file 41 "../../lib/e-puck2_main-processor/ChibiOS//os/hal/ports/STM32/LLD/SPIv1/i2s_lld.h"
 349              		.file 42 "../../lib/e-puck2_main-processor/ChibiOS//os/hal/include/pwm.h"
 350              		.file 43 "../../lib/e-puck2_main-processor/ChibiOS//os/hal/ports/STM32/LLD/TIMv1/pwm_lld.h"
 351              		.file 44 "../../lib/e-puck2_main-processor/ChibiOS//os/hal/include/serial.h"
 352              		.file 45 "../../lib/e-puck2_main-processor/ChibiOS//os/hal/ports/STM32/LLD/USARTv1/serial_lld.h"
 353              		.file 46 "../../lib/e-puck2_main-processor/ChibiOS//os/hal/include/sdc.h"
 354              		.file 47 "../../lib/e-puck2_main-processor/ChibiOS//os/hal/ports/STM32/LLD/sdc_lld.h"
 355              		.file 48 "../../lib/e-puck2_main-processor/ChibiOS//os/hal/include/spi.h"
 356              		.file 49 "../../lib/e-puck2_main-processor/ChibiOS//os/hal/ports/STM32/LLD/SPIv1/spi_lld.h"
 357              		.file 50 "../../lib/e-puck2_main-processor/ChibiOS//os/hal/include/usb.h"
 358              		.file 51 "../../lib/e-puck2_main-processor/ChibiOS//os/hal/ports/STM32/LLD/OTGv1/usb_lld.h"
 359              		.file 52 "../../lib/e-puck2_main-processor/ChibiOS//os/hal/ports/STM32/LLD/OTGv1/stm32_otg.h"
 360              		.file 53 "../../lib/e-puck2_main-processor/ChibiOS//os/hal/include/serial_usb.h"
 361              		.file 54 "c:\\users\\ben\\documents\\eclipse_e-puck2_win32_29_jan_2020\\eclipse_e-puck2\\tools\\gc
 362              		.file 55 "c:\\users\\ben\\documents\\eclipse_e-puck2_win32_29_jan_2020\\eclipse_e-puck2\\tools\\gc
 363              		.file 56 "c:\\users\\ben\\documents\\eclipse_e-puck2_win32_29_jan_2020\\eclipse_e-puck2\\tools\\gc
 364              		.file 57 "c:\\users\\ben\\documents\\eclipse_e-puck2_win32_29_jan_2020\\eclipse_e-puck2\\tools\\gc
 365              		.file 58 "../../lib/e-puck2_main-processor/src/usbcfg.h"
 366              		.file 59 "../../lib/e-puck2_main-processor/ChibiOS_ext/os/hal/include/../ports/STM32/STM32F4xx/dcm
 367              		.file 60 "c:\\users\\ben\\documents\\eclipse_e-puck2_win32_29_jan_2020\\eclipse_e-puck2\\tools\\gc
 368              		.file 61 "../../lib/e-puck2_main-processor/src/msgbus/messagebus.h"
 369              		.file 62 "c:\\users\\ben\\documents\\eclipse_e-puck2_win32_29_jan_2020\\eclipse_e-puck2\\tools\\gc
 370              		.file 63 "../../lib/e-puck2_main-processor/src/parameter/parameter.h"
 371              		.file 64 "./main.h"
 372              		.file 65 "../../lib/e-puck2_main-processor/ChibiOS//os/rt/include/chthreads.h"
 373              		.file 66 "./process_image.h"
 374              		.file 67 "../../lib/e-puck2_main-processor/src/motors.h"