ARM GAS  C:\Users\Ben\AppData\Local\Temp\ccfnskJk.s 			page 1


   1              		.cpu cortex-m4
   2              		.eabi_attribute 27, 1
   3              		.eabi_attribute 28, 1
   4              		.eabi_attribute 20, 1
   5              		.eabi_attribute 21, 1
   6              		.eabi_attribute 23, 3
   7              		.eabi_attribute 24, 1
   8              		.eabi_attribute 25, 1
   9              		.eabi_attribute 26, 1
  10              		.eabi_attribute 30, 2
  11              		.eabi_attribute 34, 1
  12              		.eabi_attribute 18, 4
  13              		.file	"process_image.c"
  14              		.text
  15              	.Ltext0:
  16              		.cfi_sections	.debug_frame
  17              		.section	.text.chprintf.constprop.1,"ax",%progbits
  18              		.align	1
  19              		.p2align 4,,15
  20              		.syntax unified
  21              		.thumb
  22              		.thumb_func
  23              		.fpu fpv4-sp-d16
  24              		.type	chprintf.constprop.1, %function
  25              	chprintf.constprop.1:
  26              	.LFB265:
  27              		.file 1 "../../lib/e-puck2_main-processor/ChibiOS//os/hal/lib/streams/chprintf.h"
  28              		.loc 1 69 0
  29              		.cfi_startproc
  30              		@ args = 4, pretend = 12, frame = 8
  31              		@ frame_needed = 0, uses_anonymous_args = 1
  32              	.LVL0:
  33 0000 0EB4     		push	{r1, r2, r3}
  34              		.cfi_def_cfa_offset 12
  35              		.cfi_offset 1, -12
  36              		.cfi_offset 2, -8
  37              		.cfi_offset 3, -4
  38 0002 10B5     		push	{r4, lr}
  39              		.cfi_def_cfa_offset 20
  40              		.cfi_offset 4, -20
  41              		.cfi_offset 14, -16
  42 0004 83B0     		sub	sp, sp, #12
  43              		.cfi_def_cfa_offset 32
  44              		.loc 1 69 0
  45 0006 05AA     		add	r2, sp, #20
  46 0008 094C     		ldr	r4, .L6
  47 000a 52F8041B 		ldr	r1, [r2], #4
  48 000e 2368     		ldr	r3, [r4]
  49              		.loc 1 74 0
  50 0010 0848     		ldr	r0, .L6+4
  51              	.LVL1:
  52              		.loc 1 73 0
  53 0012 0092     		str	r2, [sp]
  54              		.loc 1 69 0
  55 0014 0193     		str	r3, [sp, #4]
  56              	.LVL2:
  57              		.loc 1 74 0
ARM GAS  C:\Users\Ben\AppData\Local\Temp\ccfnskJk.s 			page 2


  58 0016 FFF7FEFF 		bl	chvprintf
  59              	.LVL3:
  60              		.loc 1 78 0
  61 001a 019A     		ldr	r2, [sp, #4]
  62 001c 2368     		ldr	r3, [r4]
  63 001e 9A42     		cmp	r2, r3
  64 0020 04D1     		bne	.L5
  65 0022 03B0     		add	sp, sp, #12
  66              		.cfi_remember_state
  67              		.cfi_def_cfa_offset 20
  68              		@ sp needed
  69 0024 BDE81040 		pop	{r4, lr}
  70              		.cfi_restore 14
  71              		.cfi_restore 4
  72              		.cfi_def_cfa_offset 12
  73 0028 03B0     		add	sp, sp, #12
  74              		.cfi_restore 3
  75              		.cfi_restore 2
  76              		.cfi_restore 1
  77              		.cfi_def_cfa_offset 0
  78 002a 7047     		bx	lr
  79              	.L5:
  80              		.cfi_restore_state
  81 002c FFF7FEFF 		bl	__stack_chk_fail
  82              	.LVL4:
  83              	.L7:
  84              		.align	2
  85              	.L6:
  86 0030 00000000 		.word	__stack_chk_guard
  87 0034 00000000 		.word	SD3
  88              		.cfi_endproc
  89              	.LFE265:
  90              		.size	chprintf.constprop.1, .-chprintf.constprop.1
  91              		.section	.text.CaptureImage,"ax",%progbits
  92              		.align	1
  93              		.p2align 4,,15
  94              		.syntax unified
  95              		.thumb
  96              		.thumb_func
  97              		.fpu fpv4-sp-d16
  98              		.type	CaptureImage, %function
  99              	CaptureImage:
 100              	.LFB257:
 101              		.file 2 "process_image.c"
 102              		.loc 2 39 0
 103              		.cfi_startproc
 104              		@ Volatile: function does not return.
 105              		@ args = 0, pretend = 0, frame = 8
 106              		@ frame_needed = 0, uses_anonymous_args = 0
 107              	.LVL5:
 108 0000 80B5     		push	{r7, lr}
 109              		.cfi_def_cfa_offset 8
 110              		.cfi_offset 7, -8
 111              		.cfi_offset 14, -4
 112              	.LBB54:
 113              	.LBB55:
 114              		.file 3 "../../lib/e-puck2_main-processor/ChibiOS//os/rt/include/chregistry.h"
ARM GAS  C:\Users\Ben\AppData\Local\Temp\ccfnskJk.s 			page 3


 115              		.loc 3 135 0
 116 0002 234C     		ldr	r4, .L14
 117              	.LBE55:
 118              	.LBE54:
 119              		.loc 2 39 0
 120 0004 234A     		ldr	r2, .L14+4
 121              	.LBB58:
 122              	.LBB56:
 123              		.loc 3 135 0
 124 0006 A369     		ldr	r3, [r4, #24]
 125 0008 2349     		ldr	r1, .L14+8
 126              	.LBE56:
 127              	.LBE58:
 128              		.loc 2 39 0
 129 000a 1668     		ldr	r6, [r2]
 130              	.LBB59:
 131              	.LBB57:
 132              		.loc 3 135 0
 133 000c 9961     		str	r1, [r3, #24]
 134              	.LBE57:
 135              	.LBE59:
 136              		.loc 2 39 0
 137 000e 86B0     		sub	sp, sp, #24
 138              		.cfi_def_cfa_offset 32
 139              		.loc 2 45 0
 140 0010 0223     		movs	r3, #2
 141 0012 2025     		movs	r5, #32
 142 0014 0A22     		movs	r2, #10
 143 0016 0021     		movs	r1, #0
 144 0018 0093     		str	r3, [sp]
 145              		.loc 2 39 0
 146 001a 0596     		str	r6, [sp, #20]
 147              		.loc 2 45 0
 148 001c 4FF42073 		mov	r3, #640
 149 0020 CDE90155 		strd	r5, r5, [sp, #4]
 150 0024 3020     		movs	r0, #48
 151              	.LVL6:
 152 0026 1D4E     		ldr	r6, .L14+12
 153              	.LBB60:
 154              	.LBB61:
 155              	.LBB62:
 156              	.LBB63:
 157              		.file 4 "../../lib/e-puck2_main-processor/ChibiOS//os/rt/include/chsys.h"
 158              		.loc 4 367 0
 159 0028 1D4F     		ldr	r7, .L14+16
 160              	.LBE63:
 161              	.LBE62:
 162              	.LBE61:
 163              	.LBE60:
 164              		.loc 2 45 0
 165 002a FFF7FEFF 		bl	po8030_advanced_config
 166              	.LVL7:
 167              		.loc 2 46 0
 168 002e FFF7FEFF 		bl	dcmi_enable_double_buffering
 169              	.LVL8:
 170              		.loc 2 47 0
 171 0032 0020     		movs	r0, #0
ARM GAS  C:\Users\Ben\AppData\Local\Temp\ccfnskJk.s 			page 4


 172 0034 FFF7FEFF 		bl	dcmi_set_capture_mode
 173              	.LVL9:
 174              	.LBB81:
 175              	.LBB78:
 176              	.LBB68:
 177              	.LBB69:
 178              		.file 5 "../../lib/e-puck2_main-processor/ChibiOS//os/rt/include/chbsem.h"
 179              		.loc 5 271 0
 180 0038 B046     		mov	r8, r6
 181              	.LBE69:
 182              	.LBE68:
 183              	.LBE78:
 184              	.LBE81:
 185              		.loc 2 48 0
 186 003a FFF7FEFF 		bl	dcmi_prepare
 187              	.LVL10:
 188 003e 13E0     		b	.L11
 189              	.LVL11:
 190              	.L9:
 191              	.LBB82:
 192              	.LBB79:
 193              		.loc 5 286 0
 194 0040 FFF7FEFF 		bl	chSchRescheduleS
 195              	.LVL12:
 196              	.LBB71:
 197              	.LBB67:
 198              		.loc 4 360 0
 199 0044 FFF7FEFF 		bl	_dbg_check_unlock
 200              	.LVL13:
 201              		.loc 4 361 0
 202 0048 FFF7FEFF 		bl	_stats_stop_measure_crit_thd
 203              	.LVL14:
 204              		.loc 4 367 0
 205 004c 2368     		ldr	r3, [r4]
 206 004e A342     		cmp	r3, r4
 207 0050 07D0     		beq	.L10
 208 0052 A269     		ldr	r2, [r4, #24]
 209 0054 9B68     		ldr	r3, [r3, #8]
 210 0056 9268     		ldr	r2, [r2, #8]
 211 0058 9A42     		cmp	r2, r3
 212 005a 02D2     		bcs	.L10
 213 005c 3846     		mov	r0, r7
 214 005e FFF7FEFF 		bl	chSysHalt
 215              	.LVL15:
 216              	.L10:
 217              	.LBB64:
 218              	.LBB65:
 219              	.LBB66:
 220              		.file 6 "../../lib/e-puck2_main-processor/ChibiOS//os/ext/CMSIS/include/core_cmFunc.h"
 221              		.loc 6 546 0
 222 0062 0023     		movs	r3, #0
 223              		.syntax unified
 224              	@ 546 "../../lib/e-puck2_main-processor/ChibiOS//os/ext/CMSIS/include/core_cmFunc.h" 1
 225 0064 83F31188 		MSR basepri, r3
 226              	@ 0 "" 2
 227              	.LVL16:
 228              		.thumb
ARM GAS  C:\Users\Ben\AppData\Local\Temp\ccfnskJk.s 			page 5


 229              		.syntax unified
 230              	.L11:
 231              	.LBE66:
 232              	.LBE65:
 233              	.LBE64:
 234              	.LBE67:
 235              	.LBE71:
 236              	.LBE79:
 237              	.LBE82:
 238              		.loc 2 55 0 discriminator 1
 239 0068 FFF7FEFF 		bl	dcmi_capture_start
 240              	.LVL17:
 241              		.loc 2 57 0 discriminator 1
 242 006c FFF7FEFF 		bl	wait_image_ready
 243              	.LVL18:
 244              	.LBB83:
 245              	.LBB80:
 246              	.LBB72:
 247              	.LBB73:
 248              	.LBB74:
 249              	.LBB75:
 250              	.LBB76:
 251              		.loc 6 546 0 discriminator 1
 252              		.syntax unified
 253              	@ 546 "../../lib/e-puck2_main-processor/ChibiOS//os/ext/CMSIS/include/core_cmFunc.h" 1
 254 0070 85F31188 		MSR basepri, r5
 255              	@ 0 "" 2
 256              	.LVL19:
 257              		.thumb
 258              		.syntax unified
 259              	.LBE76:
 260              	.LBE75:
 261              	.LBE74:
 262              		.loc 4 349 0 discriminator 1
 263 0074 FFF7FEFF 		bl	_stats_start_measure_crit_thd
 264              	.LVL20:
 265              		.loc 4 350 0 discriminator 1
 266 0078 FFF7FEFF 		bl	_dbg_check_lock
 267              	.LVL21:
 268              	.LBE73:
 269              	.LBE72:
 270              	.LBB77:
 271              	.LBB70:
 272              		.loc 5 268 0 discriminator 1
 273 007c FFF7FEFF 		bl	chDbgCheckClassI
 274              	.LVL22:
 275              		.loc 5 270 0 discriminator 1
 276 0080 B368     		ldr	r3, [r6, #8]
 277 0082 002B     		cmp	r3, #0
 278 0084 DCDC     		bgt	.L9
 279              		.loc 5 271 0
 280 0086 4046     		mov	r0, r8
 281 0088 FFF7FEFF 		bl	chSemSignalI
 282              	.LVL23:
 283 008c D8E7     		b	.L9
 284              	.L15:
 285 008e 00BF     		.align	2
ARM GAS  C:\Users\Ben\AppData\Local\Temp\ccfnskJk.s 			page 6


 286              	.L14:
 287 0090 00000000 		.word	ch
 288 0094 00000000 		.word	__stack_chk_guard
 289 0098 00000000 		.word	.LANCHOR0
 290 009c 00000000 		.word	.LANCHOR1
 291 00a0 00000000 		.word	.LANCHOR2
 292              	.LBE70:
 293              	.LBE77:
 294              	.LBE80:
 295              	.LBE83:
 296              		.cfi_endproc
 297              	.LFE257:
 298              		.size	CaptureImage, .-CaptureImage
 299              		.section	.text.get_distance_cm,"ax",%progbits
 300              		.align	1
 301              		.p2align 4,,15
 302              		.global	get_distance_cm
 303              		.syntax unified
 304              		.thumb
 305              		.thumb_func
 306              		.fpu fpv4-sp-d16
 307              		.type	get_distance_cm, %function
 308              	get_distance_cm:
 309              	.LFB259:
 310              		.loc 2 101 0
 311              		.cfi_startproc
 312              		@ args = 0, pretend = 0, frame = 8
 313              		@ frame_needed = 0, uses_anonymous_args = 0
 314 0000 00B5     		push	{lr}
 315              		.cfi_def_cfa_offset 4
 316              		.cfi_offset 14, -4
 317 0002 084B     		ldr	r3, .L20
 318              		.loc 2 102 0
 319 0004 0849     		ldr	r1, .L20+4
 320              		.loc 2 101 0
 321 0006 1A68     		ldr	r2, [r3]
 322              		.loc 2 103 0
 323 0008 91ED000A 		vldr.32	s0, [r1]
 324              		.loc 2 101 0
 325 000c 83B0     		sub	sp, sp, #12
 326              		.cfi_def_cfa_offset 16
 327              		.loc 2 101 0
 328 000e 0192     		str	r2, [sp, #4]
 329              		.loc 2 103 0
 330 0010 019A     		ldr	r2, [sp, #4]
 331 0012 1B68     		ldr	r3, [r3]
 332 0014 9A42     		cmp	r2, r3
 333 0016 02D1     		bne	.L19
 334 0018 03B0     		add	sp, sp, #12
 335              		.cfi_remember_state
 336              		.cfi_def_cfa_offset 4
 337              		@ sp needed
 338 001a 5DF804FB 		ldr	pc, [sp], #4
 339              	.L19:
 340              		.cfi_restore_state
 341 001e FFF7FEFF 		bl	__stack_chk_fail
 342              	.LVL24:
ARM GAS  C:\Users\Ben\AppData\Local\Temp\ccfnskJk.s 			page 7


 343              	.L21:
 344 0022 00BF     		.align	2
 345              	.L20:
 346 0024 00000000 		.word	__stack_chk_guard
 347 0028 00000000 		.word	.LANCHOR3
 348              		.cfi_endproc
 349              	.LFE259:
 350              		.size	get_distance_cm, .-get_distance_cm
 351              		.section	.text.process_image_start,"ax",%progbits
 352              		.align	1
 353              		.p2align 4,,15
 354              		.global	process_image_start
 355              		.syntax unified
 356              		.thumb
 357              		.thumb_func
 358              		.fpu fpv4-sp-d16
 359              		.type	process_image_start, %function
 360              	process_image_start:
 361              	.LFB260:
 362              		.loc 2 105 0
 363              		.cfi_startproc
 364              		@ args = 0, pretend = 0, frame = 8
 365              		@ frame_needed = 0, uses_anonymous_args = 0
 366 0000 30B5     		push	{r4, r5, lr}
 367              		.cfi_def_cfa_offset 12
 368              		.cfi_offset 4, -12
 369              		.cfi_offset 5, -8
 370              		.cfi_offset 14, -4
 371 0002 0E4C     		ldr	r4, .L26
 372              		.loc 2 106 0
 373 0004 0E4B     		ldr	r3, .L26+4
 374              		.loc 2 105 0
 375 0006 2268     		ldr	r2, [r4]
 376              		.loc 2 106 0
 377 0008 0E48     		ldr	r0, .L26+8
 378              		.loc 2 105 0
 379 000a 85B0     		sub	sp, sp, #20
 380              		.cfi_def_cfa_offset 32
 381              		.loc 2 106 0
 382 000c 0025     		movs	r5, #0
 383              		.loc 2 105 0
 384 000e 0392     		str	r2, [sp, #12]
 385              		.loc 2 106 0
 386 0010 4FF4AF61 		mov	r1, #1400
 387 0014 4022     		movs	r2, #64
 388 0016 0095     		str	r5, [sp]
 389 0018 FFF7FEFF 		bl	chThdCreateStatic
 390              	.LVL25:
 391              		.loc 2 107 0
 392 001c 0A4B     		ldr	r3, .L26+12
 393 001e 0095     		str	r5, [sp]
 394 0020 4022     		movs	r2, #64
 395 0022 0A48     		ldr	r0, .L26+16
 396 0024 4FF41E71 		mov	r1, #632
 397 0028 FFF7FEFF 		bl	chThdCreateStatic
 398              	.LVL26:
 399              		.loc 2 108 0
ARM GAS  C:\Users\Ben\AppData\Local\Temp\ccfnskJk.s 			page 8


 400 002c 039A     		ldr	r2, [sp, #12]
 401 002e 2368     		ldr	r3, [r4]
 402 0030 9A42     		cmp	r2, r3
 403 0032 01D1     		bne	.L25
 404 0034 05B0     		add	sp, sp, #20
 405              		.cfi_remember_state
 406              		.cfi_def_cfa_offset 12
 407              		@ sp needed
 408 0036 30BD     		pop	{r4, r5, pc}
 409              	.L25:
 410              		.cfi_restore_state
 411 0038 FFF7FEFF 		bl	__stack_chk_fail
 412              	.LVL27:
 413              	.L27:
 414              		.align	2
 415              	.L26:
 416 003c 00000000 		.word	__stack_chk_guard
 417 0040 00000000 		.word	ProcessImage
 418 0044 00000000 		.word	.LANCHOR4
 419 0048 00000000 		.word	CaptureImage
 420 004c 00000000 		.word	.LANCHOR5
 421              		.cfi_endproc
 422              	.LFE260:
 423              		.size	process_image_start, .-process_image_start
 424              		.section	.text.get_line_width_px,"ax",%progbits
 425              		.align	1
 426              		.p2align 4,,15
 427              		.global	get_line_width_px
 428              		.syntax unified
 429              		.thumb
 430              		.thumb_func
 431              		.fpu fpv4-sp-d16
 432              		.type	get_line_width_px, %function
 433              	get_line_width_px:
 434              	.LFB261:
 435              		.loc 2 110 0
 436              		.cfi_startproc
 437              		@ args = 0, pretend = 0, frame = 16
 438              		@ frame_needed = 0, uses_anonymous_args = 0
 439              	.LVL28:
 440 0000 2DE9F04F 		push	{r4, r5, r6, r7, r8, r9, r10, fp, lr}
 441              		.cfi_def_cfa_offset 36
 442              		.cfi_offset 4, -36
 443              		.cfi_offset 5, -32
 444              		.cfi_offset 6, -28
 445              		.cfi_offset 7, -24
 446              		.cfi_offset 8, -20
 447              		.cfi_offset 9, -16
 448              		.cfi_offset 10, -12
 449              		.cfi_offset 11, -8
 450              		.cfi_offset 14, -4
 451 0004 DFF8E880 		ldr	r8, .L55+4
 452 0008 85B0     		sub	sp, sp, #20
 453              		.cfi_def_cfa_offset 56
 454              		.loc 2 110 0
 455 000a D8F80030 		ldr	r3, [r8]
 456 000e 0393     		str	r3, [sp, #12]
ARM GAS  C:\Users\Ben\AppData\Local\Temp\ccfnskJk.s 			page 9


 457              	.LVL29:
 458              	.LBB84:
 459              		.loc 2 117 0
 460 0010 0029     		cmp	r1, #0
 461 0012 66D0     		beq	.L39
 462 0014 0646     		mov	r6, r0
 463 0016 4C1E     		subs	r4, r1, #1
 464 0018 0138     		subs	r0, r0, #1
 465              	.LVL30:
 466 001a 16FA84F4 		uxtah	r4, r6, r4
 467              	.LBE84:
 468              		.loc 2 113 0
 469 001e 0023     		movs	r3, #0
 470              	.LVL31:
 471              	.L30:
 472              	.LBB85:
 473              		.loc 2 119 0 discriminator 3
 474 0020 10F8012F 		ldrb	r2, [r0, #1]!	@ zero_extendqisi2
 475              	.LVL32:
 476 0024 1344     		add	r3, r3, r2
 477              	.LVL33:
 478              		.loc 2 117 0 discriminator 3
 479 0026 A042     		cmp	r0, r4
 480              		.loc 2 119 0 discriminator 3
 481 0028 9BB2     		uxth	r3, r3
 482              	.LVL34:
 483              		.loc 2 117 0 discriminator 3
 484 002a F9D1     		bne	.L30
 485              	.LVL35:
 486              	.LBE85:
 487              		.loc 2 121 0
 488 002c 2F4A     		ldr	r2, .L55
 489 002e A2FB0303 		umull	r0, r3, r2, r3
 490              	.LVL36:
 491              	.LBB86:
 492              		.loc 2 139 0
 493 0032 C3F34F23 		ubfx	r3, r3, #9, #16
 494 0036 07EE103A 		vmov	s14, r3	@ int
 495 003a 0025     		movs	r5, #0
 496 003c BAEEEF7A 		vcvt.f32.s32	s14, s14, #1
 497              		.loc 2 136 0
 498 0040 9646     		mov	lr, r2
 499              	.LBE86:
 500              		.loc 2 114 0
 501 0042 AA46     		mov	r10, r5
 502              		.loc 2 112 0
 503 0044 AB46     		mov	fp, r5
 504              		.loc 2 111 0
 505 0046 2846     		mov	r0, r5
 506 0048 2F46     		mov	r7, r5
 507              	.LBB88:
 508              		.loc 2 127 0
 509 004a A1F1020C 		sub	ip, r1, #2
 510              	.LVL37:
 511              	.L37:
 512 004e 022D     		cmp	r5, #2
 513 0050 16F8019B 		ldrb	r9, [r6], #1	@ zero_extendqisi2
ARM GAS  C:\Users\Ben\AppData\Local\Temp\ccfnskJk.s 			page 10


 514 0054 0FD9     		bls	.L32
 515              		.loc 2 127 0 is_stmt 0 discriminator 1
 516 0056 AC45     		cmp	ip, r5
 517 0058 0DDD     		ble	.L32
 518              	.LVL38:
 519              	.LBB87:
 520              		.loc 2 134 0 is_stmt 1
 521 005a 3478     		ldrb	r4, [r6]	@ zero_extendqisi2
 522 005c 16F8022C 		ldrb	r2, [r6, #-2]	@ zero_extendqisi2
 523 0060 16F8033C 		ldrb	r3, [r6, #-3]	@ zero_extendqisi2
 524 0064 2244     		add	r2, r2, r4
 525 0066 4A44     		add	r2, r2, r9
 526 0068 7478     		ldrb	r4, [r6, #1]	@ zero_extendqisi2
 527 006a 1344     		add	r3, r3, r2
 528 006c 2344     		add	r3, r3, r4
 529              	.LVL39:
 530              	.LBE87:
 531              		.loc 2 136 0
 532 006e AEFB0323 		umull	r2, r3, lr, r3
 533              	.LVL40:
 534 0072 4FEA9309 		lsr	r9, r3, #2
 535              	.LVL41:
 536              	.L32:
 537              		.loc 2 139 0
 538 0076 07EE909A 		vmov	s15, r9	@ int
 539 007a F8EEE77A 		vcvt.f32.s32	s15, s15
 540 007e F4EEC77A 		vcmpe.f32	s15, s14
 541 0082 F1EE10FA 		vmrs	APSR_nzcv, FPSCR
 542 0086 16D9     		bls	.L53
 543              		.loc 2 148 0
 544 0088 08DD     		ble	.L35
 545              		.loc 2 148 0 is_stmt 0 discriminator 1
 546 008a 38B1     		cbz	r0, .L35
 547              	.LVL42:
 548              		.loc 2 151 0 is_stmt 1
 549 008c 019B     		ldr	r3, [sp, #4]
 550 008e ABEB0303 		sub	r3, fp, r3
 551 0092 9A45     		cmp	r10, r3
 552 0094 1EDA     		bge	.L41
 553              		.loc 2 153 0
 554 0096 1FFA83FA 		uxth	r10, r3
 555              	.LVL43:
 556              		.loc 2 150 0
 557 009a 0020     		movs	r0, #0
 558              	.LVL44:
 559              	.L35:
 560 009c 0135     		adds	r5, r5, #1
 561              	.LVL45:
 562              		.loc 2 124 0 discriminator 2
 563 009e AFB2     		uxth	r7, r5
 564 00a0 8F42     		cmp	r7, r1
 565 00a2 D4D3     		bcc	.L37
 566              	.LVL46:
 567              	.L29:
 568              	.LBE88:
 569              		.loc 2 158 0
 570 00a4 039A     		ldr	r2, [sp, #12]
ARM GAS  C:\Users\Ben\AppData\Local\Temp\ccfnskJk.s 			page 11


 571 00a6 D8F80030 		ldr	r3, [r8]
 572 00aa 9A42     		cmp	r2, r3
 573 00ac 5046     		mov	r0, r10
 574 00ae 1AD1     		bne	.L54
 575 00b0 05B0     		add	sp, sp, #20
 576              		.cfi_remember_state
 577              		.cfi_def_cfa_offset 36
 578              		@ sp needed
 579 00b2 BDE8F08F 		pop	{r4, r5, r6, r7, r8, r9, r10, fp, pc}
 580              	.LVL47:
 581              	.L53:
 582              		.cfi_restore_state
 583              	.LBB89:
 584              		.loc 2 139 0 discriminator 1
 585 00b6 28B1     		cbz	r0, .L40
 586 00b8 0135     		adds	r5, r5, #1
 587              		.loc 2 139 0 is_stmt 0
 588 00ba BB46     		mov	fp, r7
 589              	.LVL48:
 590              		.loc 2 124 0 is_stmt 1
 591 00bc AFB2     		uxth	r7, r5
 592 00be 8F42     		cmp	r7, r1
 593 00c0 C5D3     		bcc	.L37
 594 00c2 EFE7     		b	.L29
 595              	.L40:
 596 00c4 0135     		adds	r5, r5, #1
 597 00c6 0197     		str	r7, [sp, #4]
 598              	.LVL49:
 599 00c8 AFB2     		uxth	r7, r5
 600 00ca 8F42     		cmp	r7, r1
 601              		.loc 2 142 0
 602 00cc 4FF00100 		mov	r0, #1
 603              	.LVL50:
 604              		.loc 2 124 0
 605 00d0 BDD3     		bcc	.L37
 606 00d2 E7E7     		b	.L29
 607              	.LVL51:
 608              	.L41:
 609 00d4 0135     		adds	r5, r5, #1
 610 00d6 AFB2     		uxth	r7, r5
 611 00d8 8F42     		cmp	r7, r1
 612              		.loc 2 150 0
 613 00da 4FF00000 		mov	r0, #0
 614              	.LVL52:
 615              		.loc 2 124 0
 616 00de B6D3     		bcc	.L37
 617 00e0 E0E7     		b	.L29
 618              	.LVL53:
 619              	.L39:
 620              	.LBE89:
 621              		.loc 2 114 0
 622 00e2 8A46     		mov	r10, r1
 623 00e4 DEE7     		b	.L29
 624              	.LVL54:
 625              	.L54:
 626              		.loc 2 158 0
 627 00e6 FFF7FEFF 		bl	__stack_chk_fail
ARM GAS  C:\Users\Ben\AppData\Local\Temp\ccfnskJk.s 			page 12


 628              	.LVL55:
 629              	.L56:
 630 00ea 00BF     		.align	2
 631              	.L55:
 632 00ec CDCCCCCC 		.word	-858993459
 633 00f0 00000000 		.word	__stack_chk_guard
 634              		.cfi_endproc
 635              	.LFE261:
 636              		.size	get_line_width_px, .-get_line_width_px
 637              		.global	__aeabi_i2d
 638              		.global	__aeabi_dmul
 639              		.global	__aeabi_ddiv
 640              		.global	__aeabi_d2f
 641              		.global	__aeabi_f2d
 642              		.section	.text.ProcessImage,"ax",%progbits
 643              		.align	1
 644              		.p2align 4,,15
 645              		.syntax unified
 646              		.thumb
 647              		.thumb_func
 648              		.fpu fpv4-sp-d16
 649              		.type	ProcessImage, %function
 650              	ProcessImage:
 651              	.LFB258:
 652              		.loc 2 68 0
 653              		.cfi_startproc
 654              		@ args = 0, pretend = 0, frame = 648
 655              		@ frame_needed = 0, uses_anonymous_args = 0
 656              	.LVL56:
 657 0000 2DE9F04F 		push	{r4, r5, r6, r7, r8, r9, r10, fp, lr}
 658              		.cfi_def_cfa_offset 36
 659              		.cfi_offset 4, -36
 660              		.cfi_offset 5, -32
 661              		.cfi_offset 6, -28
 662              		.cfi_offset 7, -24
 663              		.cfi_offset 8, -20
 664              		.cfi_offset 9, -16
 665              		.cfi_offset 10, -12
 666              		.cfi_offset 11, -8
 667              		.cfi_offset 14, -4
 668              	.LBB100:
 669              	.LBB101:
 670              		.loc 3 135 0
 671 0004 324A     		ldr	r2, .L65+8
 672              	.LBE101:
 673              	.LBE100:
 674              		.loc 2 68 0
 675 0006 334B     		ldr	r3, .L65+12
 676              	.LBB103:
 677              	.LBB102:
 678              		.loc 3 135 0
 679 0008 9269     		ldr	r2, [r2, #24]
 680 000a 3349     		ldr	r1, .L65+16
 681 000c 9161     		str	r1, [r2, #24]
 682              	.LBE102:
 683              	.LBE103:
 684              		.loc 2 68 0
ARM GAS  C:\Users\Ben\AppData\Local\Temp\ccfnskJk.s 			page 13


 685 000e ADF5237D 		sub	sp, sp, #652
 686              		.cfi_def_cfa_offset 688
 687              		.loc 2 68 0
 688 0012 1B68     		ldr	r3, [r3]
 689 0014 A193     		str	r3, [sp, #644]
 690              		.loc 2 74 0
 691 0016 01A8     		add	r0, sp, #4
 692              	.LVL57:
 693 0018 4FF42072 		mov	r2, #640
 694 001c 0021     		movs	r1, #0
 695 001e FFF7FEFF 		bl	memset
 696              	.LVL58:
 697              	.LBB104:
 698              	.LBB105:
 699              	.LBB106:
 700              		.loc 2 162 0
 701 0022 2E4F     		ldr	r7, .L65+20
 702 0024 DFF8C4B0 		ldr	fp, .L65+36
 703              	.LBE106:
 704              	.LBE105:
 705              	.LBB112:
 706              	.LBB113:
 707              		.loc 5 143 0
 708 0028 DFF8C4A0 		ldr	r10, .L65+40
 709              	.LBE113:
 710              	.LBE112:
 711              		.loc 2 93 0
 712 002c DFF8C490 		ldr	r9, .L65+44
 713 0030 2B4D     		ldr	r5, .L65+24
 714              	.LBB115:
 715              	.LBB109:
 716              		.loc 2 162 0
 717 0032 0026     		movs	r6, #0
 718 0034 0DF28324 		addw	r4, sp, #643
 719              	.LVL59:
 720              	.L60:
 721              	.LBE109:
 722              	.LBE115:
 723              	.LBB116:
 724              	.LBB114:
 725              		.loc 5 143 0
 726 0038 5046     		mov	r0, r10
 727 003a FFF7FEFF 		bl	chSemWait
 728              	.LVL60:
 729              	.LBE114:
 730              	.LBE116:
 731              		.loc 2 82 0
 732 003e FFF7FEFF 		bl	dcmi_get_last_image_ptr
 733              	.LVL61:
 734 0042 0DF10301 		add	r1, sp, #3
 735 0046 0130     		adds	r0, r0, #1
 736              	.LVL62:
 737              	.L58:
 738              	.LBB117:
 739              		.loc 2 86 0 discriminator 3
 740 0048 10F8012C 		ldrb	r2, [r0, #-1]	@ zero_extendqisi2
 741              	.LVL63:
ARM GAS  C:\Users\Ben\AppData\Local\Temp\ccfnskJk.s 			page 14


 742 004c 10F8023B 		ldrb	r3, [r0], #2	@ zero_extendqisi2
 743              	.LVL64:
 744              		.loc 2 87 0 discriminator 3
 745 0050 43EA0223 		orr	r3, r3, r2, lsl #8
 746 0054 C3F34513 		ubfx	r3, r3, #5, #6
 747 0058 01F8013F 		strb	r3, [r1, #1]!
 748              	.LVL65:
 749              		.loc 2 84 0 discriminator 3
 750 005c 8C42     		cmp	r4, r1
 751 005e F3D1     		bne	.L58
 752              	.LBE117:
 753              		.loc 2 92 0
 754 0060 4FF42071 		mov	r1, #640
 755              	.LVL66:
 756 0064 01A8     		add	r0, sp, #4
 757 0066 FFF7FEFF 		bl	get_line_width_px
 758              	.LVL67:
 759              		.loc 2 93 0
 760 006a 4946     		mov	r1, r9
 761 006c 0246     		mov	r2, r0
 762              		.loc 2 92 0
 763 006e 8046     		mov	r8, r0
 764              	.LVL68:
 765              		.loc 2 93 0
 766 0070 2846     		mov	r0, r5
 767              	.LVL69:
 768 0072 FFF7FEFF 		bl	chprintf.constprop.1
 769              	.LVL70:
 770              	.LBB118:
 771              	.LBB110:
 772              		.loc 2 162 0
 773 0076 08F1FF33 		add	r3, r8, #-1
 774 007a 9BB2     		uxth	r3, r3
 775 007c 40F27E22 		movw	r2, #638
 776 0080 9342     		cmp	r3, r2
 777 0082 1CD8     		bhi	.L62
 778              	.LVL71:
 779              	.LBB107:
 780              	.LBB108:
 781              		.loc 2 164 0
 782 0084 4FEA4800 		lsl	r0, r8, #1
 783 0088 FFF7FEFF 		bl	__aeabi_i2d
 784              	.LVL72:
 785 008c 0EA3     		adr	r3, .L65
 786 008e D3E90023 		ldrd	r2, [r3]
 787 0092 FFF7FEFF 		bl	__aeabi_dmul
 788              	.LVL73:
 789 0096 0246     		mov	r2, r0
 790 0098 0B46     		mov	r3, r1
 791 009a 0020     		movs	r0, #0
 792 009c 1149     		ldr	r1, .L65+28
 793 009e FFF7FEFF 		bl	__aeabi_ddiv
 794              	.LVL74:
 795 00a2 FFF7FEFF 		bl	__aeabi_d2f
 796              	.LVL75:
 797 00a6 8046     		mov	r8, r0	@ float
 798              	.LVL76:
ARM GAS  C:\Users\Ben\AppData\Local\Temp\ccfnskJk.s 			page 15


 799 00a8 FFF7FEFF 		bl	__aeabi_f2d
 800              	.LVL77:
 801 00ac 0246     		mov	r2, r0
 802 00ae 0B46     		mov	r3, r1
 803              	.L59:
 804              	.LBE108:
 805              	.LBE107:
 806              	.LBE110:
 807              	.LBE118:
 808              		.loc 2 97 0
 809 00b0 0D49     		ldr	r1, .L65+32
 810              		.loc 2 96 0
 811 00b2 CBF80080 		str	r8, [fp]	@ float
 812              		.loc 2 97 0
 813 00b6 2846     		mov	r0, r5
 814 00b8 FFF7FEFF 		bl	chprintf.constprop.1
 815              	.LVL78:
 816              	.LBE104:
 817              		.loc 2 78 0
 818 00bc BCE7     		b	.L60
 819              	.LVL79:
 820              	.L62:
 821              	.LBB120:
 822              	.LBB119:
 823              	.LBB111:
 824              		.loc 2 162 0
 825 00be 3246     		mov	r2, r6
 826 00c0 3B46     		mov	r3, r7
 827              		.loc 2 163 0
 828 00c2 DFF83480 		ldr	r8, .L65+48
 829              	.LVL80:
 830 00c6 F3E7     		b	.L59
 831              	.L66:
 832              		.align	3
 833              	.L65:
 834 00c8 ECD2BB0B 		.word	196858604
 835 00cc 0000F03F 		.word	1072693248
 836 00d0 00000000 		.word	ch
 837 00d4 00000000 		.word	__stack_chk_guard
 838 00d8 00000000 		.word	.LANCHOR6
 839 00dc 0000F0BF 		.word	-1074790400
 840 00e0 00000000 		.word	SD3
 841 00e4 0040A940 		.word	1084833792
 842 00e8 14000000 		.word	.LC1
 843 00ec 00000000 		.word	.LANCHOR3
 844 00f0 00000000 		.word	.LANCHOR1
 845 00f4 00000000 		.word	.LC0
 846 00f8 000080BF 		.word	-1082130432
 847              	.LBE111:
 848              	.LBE119:
 849              	.LBE120:
 850              		.cfi_endproc
 851              	.LFE258:
 852              		.size	ProcessImage, .-ProcessImage
 853              		.section	.text.calculate_distance,"ax",%progbits
 854              		.align	1
 855              		.p2align 4,,15
ARM GAS  C:\Users\Ben\AppData\Local\Temp\ccfnskJk.s 			page 16


 856              		.global	calculate_distance
 857              		.syntax unified
 858              		.thumb
 859              		.thumb_func
 860              		.fpu fpv4-sp-d16
 861              		.type	calculate_distance, %function
 862              	calculate_distance:
 863              	.LFB262:
 864              		.loc 2 161 0
 865              		.cfi_startproc
 866              		@ args = 0, pretend = 0, frame = 8
 867              		@ frame_needed = 0, uses_anonymous_args = 0
 868              	.LVL81:
 869 0000 10B5     		push	{r4, lr}
 870              		.cfi_def_cfa_offset 8
 871              		.cfi_offset 4, -8
 872              		.cfi_offset 14, -4
 873 0002 154C     		ldr	r4, .L73+8
 874 0004 82B0     		sub	sp, sp, #8
 875              		.cfi_def_cfa_offset 16
 876              		.loc 2 161 0
 877 0006 2268     		ldr	r2, [r4]
 878 0008 0192     		str	r2, [sp, #4]
 879              		.loc 2 162 0
 880 000a 431E     		subs	r3, r0, #1
 881 000c 9BB2     		uxth	r3, r3
 882 000e 40F27E22 		movw	r2, #638
 883 0012 9342     		cmp	r3, r2
 884 0014 17D8     		bhi	.L70
 885              	.LVL82:
 886              	.LBB123:
 887              	.LBB124:
 888              		.loc 2 164 0
 889 0016 4000     		lsls	r0, r0, #1
 890              	.LVL83:
 891 0018 FFF7FEFF 		bl	__aeabi_i2d
 892              	.LVL84:
 893 001c 0CA3     		adr	r3, .L73
 894 001e D3E90023 		ldrd	r2, [r3]
 895 0022 FFF7FEFF 		bl	__aeabi_dmul
 896              	.LVL85:
 897 0026 0246     		mov	r2, r0
 898 0028 0B46     		mov	r3, r1
 899 002a 0020     		movs	r0, #0
 900 002c 0B49     		ldr	r1, .L73+12
 901 002e FFF7FEFF 		bl	__aeabi_ddiv
 902              	.LVL86:
 903 0032 FFF7FEFF 		bl	__aeabi_d2f
 904              	.LVL87:
 905 0036 00EE100A 		vmov	s0, r0
 906              	.LVL88:
 907              	.L67:
 908              	.LBE124:
 909              	.LBE123:
 910              		.loc 2 165 0
 911 003a 019A     		ldr	r2, [sp, #4]
 912 003c 2368     		ldr	r3, [r4]
ARM GAS  C:\Users\Ben\AppData\Local\Temp\ccfnskJk.s 			page 17


 913 003e 9A42     		cmp	r2, r3
 914 0040 04D1     		bne	.L72
 915 0042 02B0     		add	sp, sp, #8
 916              		.cfi_remember_state
 917              		.cfi_def_cfa_offset 8
 918              		@ sp needed
 919 0044 10BD     		pop	{r4, pc}
 920              	.LVL89:
 921              	.L70:
 922              		.cfi_restore_state
 923              		.loc 2 163 0
 924 0046 BFEE000A 		vmov.f32	s0, #-1.0e+0
 925 004a F6E7     		b	.L67
 926              	.LVL90:
 927              	.L72:
 928              		.loc 2 165 0
 929 004c FFF7FEFF 		bl	__stack_chk_fail
 930              	.LVL91:
 931              	.L74:
 932              		.align	3
 933              	.L73:
 934 0050 ECD2BB0B 		.word	196858604
 935 0054 0000F03F 		.word	1072693248
 936 0058 00000000 		.word	__stack_chk_guard
 937 005c 0040A940 		.word	1084833792
 938              		.cfi_endproc
 939              	.LFE262:
 940              		.size	calculate_distance, .-calculate_distance
 941              		.section	.bss.distance_cm,"aw",%nobits
 942              		.align	2
 943              		.set	.LANCHOR3,. + 0
 944              		.type	distance_cm, %object
 945              		.size	distance_cm, 4
 946              	distance_cm:
 947 0000 00000000 		.space	4
 948              		.section	.bss.waCaptureImage,"aw",%nobits
 949              		.align	3
 950              		.set	.LANCHOR5,. + 0
 951              		.type	waCaptureImage, %object
 952              		.size	waCaptureImage, 632
 953              	waCaptureImage:
 954 0000 00000000 		.space	632
 954      00000000 
 954      00000000 
 954      00000000 
 954      00000000 
 955              		.section	.bss.waProcessImage,"aw",%nobits
 956              		.align	3
 957              		.set	.LANCHOR4,. + 0
 958              		.type	waProcessImage, %object
 959              		.size	waProcessImage, 1400
 960              	waProcessImage:
 961 0000 00000000 		.space	1400
 961      00000000 
 961      00000000 
 961      00000000 
 961      00000000 
ARM GAS  C:\Users\Ben\AppData\Local\Temp\ccfnskJk.s 			page 18


 962              		.section	.data.image_ready_sem,"aw",%progbits
 963              		.align	2
 964              		.set	.LANCHOR1,. + 0
 965              		.type	image_ready_sem, %object
 966              		.size	image_ready_sem, 12
 967              	image_ready_sem:
 968 0000 00000000 		.word	image_ready_sem
 969 0004 00000000 		.word	image_ready_sem
 970 0008 00000000 		.word	0
 971              		.section	.rodata.ProcessImage.str1.4,"aMS",%progbits,1
 972              		.align	2
 973              	.LC0:
 974 0000 6C696E65 		.ascii	"line width = %i \015\012\000"
 974      20776964 
 974      7468203D 
 974      20256920 
 974      0D0A00
 975 0013 00       		.space	1
 976              	.LC1:
 977 0014 64697374 		.ascii	"distance = %f \015\012\000"
 977      616E6365 
 977      203D2025 
 977      66200D0A 
 977      00
 978              		.section	.rodata.__FUNCTION__.11839,"a",%progbits
 979              		.align	2
 980              		.set	.LANCHOR0,. + 0
 981              		.type	__FUNCTION__.11839, %object
 982              		.size	__FUNCTION__.11839, 13
 983              	__FUNCTION__.11839:
 984 0000 43617074 		.ascii	"CaptureImage\000"
 984      75726549 
 984      6D616765 
 984      00
 985              		.section	.rodata.__FUNCTION__.11845,"a",%progbits
 986              		.align	2
 987              		.set	.LANCHOR6,. + 0
 988              		.type	__FUNCTION__.11845, %object
 989              		.size	__FUNCTION__.11845, 13
 990              	__FUNCTION__.11845:
 991 0000 50726F63 		.ascii	"ProcessImage\000"
 991      65737349 
 991      6D616765 
 991      00
 992              		.section	.rodata.__func__.7153,"a",%progbits
 993              		.align	2
 994              		.set	.LANCHOR2,. + 0
 995              		.type	__func__.7153, %object
 996              		.size	__func__.7153, 12
 997              	__func__.7153:
 998 0000 63685379 		.ascii	"chSysUnlock\000"
 998      73556E6C 
 998      6F636B00 
 999              		.text
 1000              	.Letext0:
 1001              		.file 7 "c:\\users\\ben\\documents\\eclipse_e-puck2_win32_29_jan_2020\\eclipse_e-puck2\\tools\\gcc
 1002              		.file 8 "c:\\users\\ben\\documents\\eclipse_e-puck2_win32_29_jan_2020\\eclipse_e-puck2\\tools\\gcc
ARM GAS  C:\Users\Ben\AppData\Local\Temp\ccfnskJk.s 			page 19


 1003              		.file 9 "c:\\users\\ben\\documents\\eclipse_e-puck2_win32_29_jan_2020\\eclipse_e-puck2\\tools\\gcc
 1004              		.file 10 "../../lib/e-puck2_main-processor/ChibiOS//os/rt/ports/ARMCMx/compilers/GCC/chtypes.h"
 1005              		.file 11 "../../lib/e-puck2_main-processor/ChibiOS//os/rt/include/chsystypes.h"
 1006              		.file 12 "../../lib/e-puck2_main-processor/ChibiOS//os/rt/include/chschd.h"
 1007              		.file 13 "../../lib/e-puck2_main-processor/ChibiOS//os/ext/CMSIS/include/core_cm4.h"
 1008              		.file 14 "../../lib/e-puck2_main-processor/ChibiOS//os/ext/CMSIS/ST/system_stm32f4xx.h"
 1009              		.file 15 "../../lib/e-puck2_main-processor/ChibiOS//os/ext/CMSIS/ST/stm32f407xx.h"
 1010              		.file 16 "../../lib/e-puck2_main-processor/ChibiOS//os/rt/ports/ARMCMx/chcore.h"
 1011              		.file 17 "../../lib/e-puck2_main-processor/ChibiOS//os/rt/ports/ARMCMx/chcore_v7m.h"
 1012              		.file 18 "../../lib/e-puck2_main-processor/ChibiOS//os/rt/include/chdebug.h"
 1013              		.file 19 "../../lib/e-puck2_main-processor/ChibiOS//os/rt/include/chtm.h"
 1014              		.file 20 "../../lib/e-puck2_main-processor/ChibiOS//os/rt/include/chstats.h"
 1015              		.file 21 "../../lib/e-puck2_main-processor/ChibiOS//os/rt/include/chsem.h"
 1016              		.file 22 "../../lib/e-puck2_main-processor/ChibiOS//os/rt/include/chmtx.h"
 1017              		.file 23 "../../lib/e-puck2_main-processor/ChibiOS//os/rt/include/chevents.h"
 1018              		.file 24 "../../lib/e-puck2_main-processor/ChibiOS//os/rt/include/chqueues.h"
 1019              		.file 25 "../../lib/e-puck2_main-processor/ChibiOS//os/rt/include/chstreams.h"
 1020              		.file 26 "../../lib/e-puck2_main-processor/ChibiOS//os/hal/ports/STM32/STM32F4xx/stm32_dma.h"
 1021              		.file 27 "../../lib/e-puck2_main-processor/ChibiOS//os/hal/include/hal_ioblock.h"
 1022              		.file 28 "../../lib/e-puck2_main-processor/ChibiOS//os/hal/ports/STM32/LLD/GPIOv2/pal_lld.h"
 1023              		.file 29 "../../lib/e-puck2_main-processor/ChibiOS//os/hal/include/adc.h"
 1024              		.file 30 "../../lib/e-puck2_main-processor/ChibiOS//os/hal/ports/STM32/STM32F4xx/adc_lld.h"
 1025              		.file 31 "../../lib/e-puck2_main-processor/ChibiOS//os/hal/include/can.h"
 1026              		.file 32 "../../lib/e-puck2_main-processor/ChibiOS//os/hal/ports/STM32/LLD/can_lld.h"
 1027              		.file 33 "../../lib/e-puck2_main-processor/ChibiOS//os/hal/include/dac.h"
 1028              		.file 34 "../../lib/e-puck2_main-processor/ChibiOS//os/hal/ports/STM32/LLD/DACv1/dac_lld.h"
 1029              		.file 35 "../../lib/e-puck2_main-processor/ChibiOS//os/hal/include/ext.h"
 1030              		.file 36 "../../lib/e-puck2_main-processor/ChibiOS//os/hal/ports/STM32/LLD/ext_lld.h"
 1031              		.file 37 "../../lib/e-puck2_main-processor/ChibiOS//os/hal/include/gpt.h"
 1032              		.file 38 "../../lib/e-puck2_main-processor/ChibiOS//os/hal/ports/STM32/LLD/TIMv1/gpt_lld.h"
 1033              		.file 39 "../../lib/e-puck2_main-processor/ChibiOS//os/hal/ports/STM32/LLD/TIMv1/stm32_tim.h"
 1034              		.file 40 "../../lib/e-puck2_main-processor/ChibiOS//os/hal/include/i2c.h"
 1035              		.file 41 "../../lib/e-puck2_main-processor/ChibiOS//os/hal/ports/STM32/LLD/I2Cv1/i2c_lld.h"
 1036              		.file 42 "../../lib/e-puck2_main-processor/ChibiOS//os/hal/include/i2s.h"
 1037              		.file 43 "../../lib/e-puck2_main-processor/ChibiOS//os/hal/ports/STM32/LLD/SPIv1/i2s_lld.h"
 1038              		.file 44 "../../lib/e-puck2_main-processor/ChibiOS//os/hal/include/pwm.h"
 1039              		.file 45 "../../lib/e-puck2_main-processor/ChibiOS//os/hal/ports/STM32/LLD/TIMv1/pwm_lld.h"
 1040              		.file 46 "../../lib/e-puck2_main-processor/ChibiOS//os/hal/include/serial.h"
 1041              		.file 47 "../../lib/e-puck2_main-processor/ChibiOS//os/hal/ports/STM32/LLD/USARTv1/serial_lld.h"
 1042              		.file 48 "../../lib/e-puck2_main-processor/ChibiOS//os/hal/include/sdc.h"
 1043              		.file 49 "../../lib/e-puck2_main-processor/ChibiOS//os/hal/ports/STM32/LLD/sdc_lld.h"
 1044              		.file 50 "../../lib/e-puck2_main-processor/ChibiOS//os/hal/include/spi.h"
 1045              		.file 51 "../../lib/e-puck2_main-processor/ChibiOS//os/hal/ports/STM32/LLD/SPIv1/spi_lld.h"
 1046              		.file 52 "../../lib/e-puck2_main-processor/ChibiOS//os/hal/include/usb.h"
 1047              		.file 53 "../../lib/e-puck2_main-processor/ChibiOS//os/hal/ports/STM32/LLD/OTGv1/usb_lld.h"
 1048              		.file 54 "../../lib/e-puck2_main-processor/ChibiOS//os/hal/ports/STM32/LLD/OTGv1/stm32_otg.h"
 1049              		.file 55 "../../lib/e-puck2_main-processor/ChibiOS//os/hal/include/serial_usb.h"
 1050              		.file 56 "c:\\users\\ben\\documents\\eclipse_e-puck2_win32_29_jan_2020\\eclipse_e-puck2\\tools\\gc
 1051              		.file 57 "<built-in>"
 1052              		.file 58 "../../lib/e-puck2_main-processor/src/usbcfg.h"
 1053              		.file 59 "c:\\users\\ben\\documents\\eclipse_e-puck2_win32_29_jan_2020\\eclipse_e-puck2\\tools\\gc
 1054              		.file 60 "c:\\users\\ben\\documents\\eclipse_e-puck2_win32_29_jan_2020\\eclipse_e-puck2\\tools\\gc
 1055              		.file 61 "c:\\users\\ben\\documents\\eclipse_e-puck2_win32_29_jan_2020\\eclipse_e-puck2\\tools\\gc
 1056              		.file 62 "c:\\users\\ben\\documents\\eclipse_e-puck2_win32_29_jan_2020\\eclipse_e-puck2\\tools\\gc
 1057              		.file 63 "../../lib/e-puck2_main-processor/ChibiOS_ext/os/hal/include/../ports/STM32/STM32F4xx/dcm
 1058              		.file 64 "../../lib/e-puck2_main-processor/src/camera/po8030.h"
 1059              		.file 65 "../../lib/e-puck2_main-processor/src/camera/dcmi_camera.h"
ARM GAS  C:\Users\Ben\AppData\Local\Temp\ccfnskJk.s 			page 20


 1060              		.file 66 "c:\\users\\ben\\documents\\eclipse_e-puck2_win32_29_jan_2020\\eclipse_e-puck2\\tools\\gc
 1061              		.file 67 "../../lib/e-puck2_main-processor/src/msgbus/messagebus.h"
 1062              		.file 68 "c:\\users\\ben\\documents\\eclipse_e-puck2_win32_29_jan_2020\\eclipse_e-puck2\\tools\\gc
 1063              		.file 69 "../../lib/e-puck2_main-processor/src/parameter/parameter.h"
 1064              		.file 70 "./main.h"
 1065              		.file 71 "../../lib/e-puck2_main-processor/ChibiOS//os/rt/include/chthreads.h"